; ModuleID = 'source-C-CXX/15/108.c'
source_filename = "source-C-CXX/15/108.c"
target datalayout = "e-m:e-p270:32:32-p271:32:32-p272:64:64-i64:64-f80:128-n8:16:32:64-S128"
target triple = "x86_64-pc-linux-gnu"

@.str = private unnamed_addr constant [3 x i8] c"%d\00", align 1

; Function Attrs: nofree nounwind sspstrong uwtable
define dso_local i32 @main() local_unnamed_addr #0 {
  %1 = alloca i32, align 4
  %2 = bitcast i32* %1 to i8*
  call void @llvm.lifetime.start.p0i8(i64 4, i8* nonnull %2) #3
  %3 = call i32 (i8*, ...) @__isoc99_scanf(i8* getelementptr inbounds ([3 x i8], [3 x i8]* @.str, i64 0, i64 0), i32* nonnull %1)
  %4 = load i32, i32* %1, align 4, !tbaa !5
  %5 = srem i32 %4, 10
  %6 = call i32 (i8*, ...) @printf(i8* nonnull dereferenceable(1) getelementptr inbounds ([3 x i8], [3 x i8]* @.str, i64 0, i64 0), i32 %5)
  %7 = load i32, i32* %1, align 4, !tbaa !5
  %8 = sub nsw i32 %7, %5
  %9 = sdiv i32 %8, 10
  store i32 %9, i32* %1, align 4, !tbaa !5
  %10 = add i32 %8, 9
  %11 = icmp ult i32 %10, 19
  br i1 %11, label %20, label %12

12:                                               ; preds = %0
  %13 = srem i32 %9, 10
  %14 = call i32 (i8*, ...) @printf(i8* nonnull dereferenceable(1) getelementptr inbounds ([3 x i8], [3 x i8]* @.str, i64 0, i64 0), i32 %13)
  %15 = load i32, i32* %1, align 4, !tbaa !5
  %16 = sub nsw i32 %15, %13
  %17 = sdiv i32 %16, 10
  store i32 %17, i32* %1, align 4, !tbaa !5
  %18 = add i32 %16, 9
  %19 = icmp ult i32 %18, 19
  br i1 %19, label %20, label %21

20:                                               ; preds = %37, %29, %21, %12, %0
  call void @llvm.lifetime.end.p0i8(i64 4, i8* nonnull %2) #3
  ret i32 0

21:                                               ; preds = %12
  %22 = srem i32 %17, 10
  %23 = call i32 (i8*, ...) @printf(i8* nonnull dereferenceable(1) getelementptr inbounds ([3 x i8], [3 x i8]* @.str, i64 0, i64 0), i32 %22)
  %24 = load i32, i32* %1, align 4, !tbaa !5
  %25 = sub nsw i32 %24, %22
  %26 = sdiv i32 %25, 10
  store i32 %26, i32* %1, align 4, !tbaa !5
  %27 = add i32 %25, 9
  %28 = icmp ult i32 %27, 19
  br i1 %28, label %20, label %29

29:                                               ; preds = %21
  %30 = srem i32 %26, 10
  %31 = call i32 (i8*, ...) @printf(i8* nonnull dereferenceable(1) getelementptr inbounds ([3 x i8], [3 x i8]* @.str, i64 0, i64 0), i32 %30)
  %32 = load i32, i32* %1, align 4, !tbaa !5
  %33 = sub nsw i32 %32, %30
  %34 = sdiv i32 %33, 10
  store i32 %34, i32* %1, align 4, !tbaa !5
  %35 = add i32 %33, 9
  %36 = icmp ult i32 %35, 19
  br i1 %36, label %20, label %37

37:                                               ; preds = %29
  %38 = srem i32 %34, 10
  %39 = call i32 (i8*, ...) @printf(i8* nonnull dereferenceable(1) getelementptr inbounds ([3 x i8], [3 x i8]* @.str, i64 0, i64 0), i32 %38)
  br label %20
}

; Function Attrs: argmemonly mustprogress nofree nosync nounwind willreturn
declare void @llvm.lifetime.start.p0i8(i64 immarg, i8* nocapture) #1

; Function Attrs: nofree nounwind
declare noundef i32 @__isoc99_scanf(i8* nocapture noundef readonly, ...) local_unnamed_addr #2

; Function Attrs: nofree nounwind
declare noundef i32 @printf(i8* nocapture noundef readonly, ...) local_unnamed_addr #2

; Function Attrs: argmemonly mustprogress nofree nosync nounwind willreturn
declare void @llvm.lifetime.end.p0i8(i64 immarg, i8* nocapture) #1


!llvm.module.flags = !{!0, !1, !2, !3}
!llvm.ident = !{!4}

!0 = !{i32 1, !"wchar_size", i32 4}
!1 = !{i32 7, !"PIC Level", i32 2}
!2 = !{i32 7, !"PIE Level", i32 2}
!3 = !{i32 7, !"uwtable", i32 1}
!4 = !{!"clang version 13.0.0"}
!5 = !{!6, !6, i64 0}
!6 = !{!"int", !7, i64 0}
!7 = !{!"omnipotent char", !8, i64 0}
!8 = !{!"Simple C/C++ TBAA"}
